; Function Attrs: mustprogress uwtable
define void @_ZN26MLSceneGLSharedDataContext20doneCurrentGLContextEP10QGLContext(ptr noundef nonnull align 8 dereferenceable(168) %0, ptr noundef %1) local_unnamed_addr #9 align 2 {
  tail call void @_ZN9QGLWidget11doneCurrentEv(ptr noundef nonnull align 8 dereferenceable(48) %0)
  %.not = icmp eq ptr %1, null
  br i1 %.not, label %7, label %3

3:                                                ; preds = %2
  %4 = load ptr, ptr %1, align 8
  %5 = getelementptr inbounds i8, ptr %4, i64 24
  %6 = load ptr, ptr %5, align 8
  tail call void %6(ptr noundef nonnull align 8 dereferenceable(16) %1)
  br label %7

7:                                                ; preds = %3, %2
  ret void
}